; Function Attrs: nounwind uwtable
define void @png_push_read_sig(ptr noalias noundef %0, ptr noalias noundef %1) local_unnamed_addr #0 {
  %3 = getelementptr inbounds i8, ptr %0, i64 621
  %4 = load i8, ptr %3, align 1
  %5 = zext i8 %4 to i64
  %6 = sub nsw i64 8, %5
  %7 = getelementptr inbounds i8, ptr %0, i64 864
  %8 = load i64, ptr %7, align 8
  %spec.select = tail call i64 @llvm.umin.i64(i64 %8, i64 %6)
  %9 = getelementptr inbounds i8, ptr %1, i64 44
  %10 = getelementptr inbounds [8 x i8], ptr %9, i64 0, i64 %5
  %11 = getelementptr inbounds i8, ptr %0, i64 848
  %12 = load i64, ptr %11, align 8
  %.not.i = icmp eq i64 %12, 0
  br i1 %.not.i, label %21, label %13

13:                                               ; preds = %2
  %..i = tail call i64 @llvm.umin.i64(i64 %12, i64 %spec.select)
  %14 = getelementptr inbounds i8, ptr %0, i64 808
  %15 = load ptr, ptr %14, align 8
  tail call void @llvm.memcpy.p0.p0.i64(ptr nonnull align 1 %10, ptr align 1 %15, i64 %..i, i1 false)
  %16 = sub i64 %spec.select, %..i
  %17 = getelementptr inbounds i8, ptr %10, i64 %..i
  %18 = sub i64 %8, %..i
  store i64 %18, ptr %7, align 8
  %19 = sub i64 %12, %..i
  store i64 %19, ptr %11, align 8
  %20 = getelementptr inbounds i8, ptr %15, i64 %..i
  store ptr %20, ptr %14, align 8
  br label %21

21:                                               ; preds = %13, %2
  %22 = phi i64 [ %18, %13 ], [ %8, %2 ]
  %.036.i = phi i64 [ %16, %13 ], [ %spec.select, %2 ]
  %.035.i = phi ptr [ %17, %13 ], [ %10, %2 ]
  %.not41.i = icmp eq i64 %.036.i, 0
  br i1 %.not41.i, label %png_push_fill_buffer.exit, label %23

23:                                               ; preds = %21
  %24 = getelementptr inbounds i8, ptr %0, i64 872
  %25 = load i64, ptr %24, align 8
  %.not42.i = icmp eq i64 %25, 0
  br i1 %.not42.i, label %png_push_fill_buffer.exit, label %26

26:                                               ; preds = %23
  %.036..i = tail call i64 @llvm.umin.i64(i64 %.036.i, i64 %25)
  %27 = getelementptr inbounds i8, ptr %0, i64 824
  %28 = load ptr, ptr %27, align 8
  tail call void @llvm.memcpy.p0.p0.i64(ptr nonnull align 1 %.035.i, ptr align 1 %28, i64 %.036..i, i1 false)
  %29 = sub i64 %22, %.036..i
  store i64 %29, ptr %7, align 8
  %30 = sub i64 %25, %.036..i
  store i64 %30, ptr %24, align 8
  %31 = getelementptr inbounds i8, ptr %28, i64 %.036..i
  store ptr %31, ptr %27, align 8
  br label %png_push_fill_buffer.exit

png_push_fill_buffer.exit:                        ; preds = %21, %23, %26
  %32 = trunc i64 %spec.select to i8
  %33 = add i8 %4, %32
  store i8 %33, ptr %3, align 1
  %34 = tail call i32 @png_sig_cmp(ptr noundef nonnull %9, i64 noundef %5, i64 noundef %spec.select) #11
  %.not = icmp eq i32 %34, 0
  br i1 %.not, label %42, label %35

35:                                               ; preds = %png_push_fill_buffer.exit
  %36 = icmp ult i8 %4, 4
  br i1 %36, label %37, label %41

37:                                               ; preds = %35
  %38 = add nsw i64 %spec.select, -4
  %39 = tail call i32 @png_sig_cmp(ptr noundef nonnull %9, i64 noundef %5, i64 noundef %38) #11
  %.not25 = icmp eq i32 %39, 0
  br i1 %.not25, label %41, label %40

40:                                               ; preds = %37
  tail call void @png_error(ptr noundef nonnull %0, ptr noundef nonnull @.str.1) #10
  unreachable

41:                                               ; preds = %37, %35
  tail call void @png_error(ptr noundef nonnull %0, ptr noundef nonnull @.str.2) #10
  unreachable

42:                                               ; preds = %png_push_fill_buffer.exit
  %43 = icmp ugt i8 %33, 7
  br i1 %43, label %44, label %46

44:                                               ; preds = %42
  %45 = getelementptr inbounds i8, ptr %0, i64 880
  store i32 1, ptr %45, align 8
  br label %46

46:                                               ; preds = %42, %44
  ret void
}